(dp1
S'group_id'
p2
(dp3
S'length'
p4
I255
sS'unique'
p5
I00
sS'sortable'
p6
I2
sS'sql'
p7
S'INT'
p8
sS'notnull'
p9
I01
sS'type'
p10
S'reference user_group'
p11
ssS'user_id'
p12
(dp13
g4
I255
sg5
I00
sg6
I1
sg7
g8
sg9
I01
sg10
S'reference user'
p14
ss.