(dp1
S'attached_disk_name'
p2
(dp3
S'length'
p4
I100
sS'unique'
p5
I00
sS'sortable'
p6
I3
sS'sql'
p7
S'VARCHAR(100) NOT NULL'
p8
sS'notnull'
p9
I01
sS'type'
p10
S'string'
p11
ssS'datastore_id'
p12
(dp13
g4
I255
sg5
I00
sg6
I2
sg7
S'INT'
p14
sg9
I01
sg10
S'reference datastore'
p15
ssS'capacity'
p16
(dp17
g4
I45
sg5
I00
sg6
I4
sg7
S'VARCHAR(45)'
p18
sg9
I00
sg10
g11
ssS'vm_id'
p19
(dp20
g4
I255
sg5
I00
sg6
I1
sg7
g14
sg9
I01
sg10
S'reference vm_data'
p21
ss.